target datalayout = "e-m:e-p270:32:32-p271:32:32-p272:64:64-i64:64-i128:128-f80:128-n8:16:32:64-S128"
target triple = "x86_64-unknown-linux-gnu"

%"class.llvh::raw_ostream" = type <{ ptr, ptr, ptr, ptr, i32, [4 x i8] }>

; Function Attrs: mustprogress nounwind uwtable
define hidden void @_ZN4llvh11raw_ostream14flush_nonemptyEv(ptr noundef nonnull align 8 dereferenceable(36) %this) #0 align 2 {
entry:
  %this.addr = alloca ptr, align 8
  %Length = alloca i64, align 8
  store ptr %this, ptr %this.addr, align 8
  %this1 = load ptr, ptr %this.addr, align 8
  %OutBufCur = getelementptr inbounds %"class.llvh::raw_ostream", ptr %this1, i32 0, i32 3
  %0 = load ptr, ptr %OutBufCur, align 8
  %OutBufStart = getelementptr inbounds %"class.llvh::raw_ostream", ptr %this1, i32 0, i32 1
  %1 = load ptr, ptr %OutBufStart, align 8
  %sub.ptr.lhs.cast = ptrtoint ptr %0 to i64
  %sub.ptr.rhs.cast = ptrtoint ptr %1 to i64
  %sub.ptr.sub = sub i64 %sub.ptr.lhs.cast, %sub.ptr.rhs.cast
  store i64 %sub.ptr.sub, ptr %Length, align 8
  %OutBufStart2 = getelementptr inbounds %"class.llvh::raw_ostream", ptr %this1, i32 0, i32 1
  %2 = load ptr, ptr %OutBufStart2, align 8
  %OutBufCur3 = getelementptr inbounds %"class.llvh::raw_ostream", ptr %this1, i32 0, i32 3
  store ptr %2, ptr %OutBufCur3, align 8
  %OutBufStart4 = getelementptr inbounds %"class.llvh::raw_ostream", ptr %this1, i32 0, i32 1
  %3 = load ptr, ptr %OutBufStart4, align 8
  %4 = load i64, ptr %Length, align 8
  %vtable = load ptr, ptr %this1, align 8
  %vfn = getelementptr inbounds ptr, ptr %vtable, i64 7
  %5 = load ptr, ptr %vfn, align 8
  call void %5(ptr noundef nonnull align 8 dereferenceable(36) %this1, ptr noundef %3, i64 noundef %4)
  ret void
}

; Function Attrs: mustprogress nounwind uwtable
define hidden void @_ZN4llvh11raw_ostream14copy_to_bufferEPKcm(ptr noundef nonnull align 8 dereferenceable(36) %this, ptr noundef %Ptr, i64 noundef %Size) #0 align 2 {
entry:
  %this.addr = alloca ptr, align 8
  %Ptr.addr = alloca ptr, align 8
  %Size.addr = alloca i64, align 8
  store ptr %this, ptr %this.addr, align 8
  store ptr %Ptr, ptr %Ptr.addr, align 8
  store i64 %Size, ptr %Size.addr, align 8
  %this1 = load ptr, ptr %this.addr, align 8
  %0 = load i64, ptr %Size.addr, align 8
  switch i64 %0, label %sw.default [
    i64 4, label %sw.bb
    i64 3, label %sw.bb3
    i64 2, label %sw.bb7
    i64 1, label %sw.bb11
    i64 0, label %sw.bb15
  ]

sw.bb:                                            ; preds = %entry
  %1 = load ptr, ptr %Ptr.addr, align 8
  %arrayidx = getelementptr inbounds i8, ptr %1, i64 3
  %2 = load i8, ptr %arrayidx, align 1
  %OutBufCur = getelementptr inbounds %"class.llvh::raw_ostream", ptr %this1, i32 0, i32 3
  %3 = load ptr, ptr %OutBufCur, align 8
  %arrayidx2 = getelementptr inbounds i8, ptr %3, i64 3
  store i8 %2, ptr %arrayidx2, align 1
  br label %sw.bb3

sw.bb3:                                           ; preds = %sw.bb, %entry
  %4 = load ptr, ptr %Ptr.addr, align 8
  %arrayidx4 = getelementptr inbounds i8, ptr %4, i64 2
  %5 = load i8, ptr %arrayidx4, align 1
  %OutBufCur5 = getelementptr inbounds %"class.llvh::raw_ostream", ptr %this1, i32 0, i32 3
  %6 = load ptr, ptr %OutBufCur5, align 8
  %arrayidx6 = getelementptr inbounds i8, ptr %6, i64 2
  store i8 %5, ptr %arrayidx6, align 1
  br label %sw.bb7

sw.bb7:                                           ; preds = %sw.bb3, %entry
  %7 = load ptr, ptr %Ptr.addr, align 8
  %arrayidx8 = getelementptr inbounds i8, ptr %7, i64 1
  %8 = load i8, ptr %arrayidx8, align 1
  %OutBufCur9 = getelementptr inbounds %"class.llvh::raw_ostream", ptr %this1, i32 0, i32 3
  %9 = load ptr, ptr %OutBufCur9, align 8
  %arrayidx10 = getelementptr inbounds i8, ptr %9, i64 1
  store i8 %8, ptr %arrayidx10, align 1
  br label %sw.bb11

sw.bb11:                                          ; preds = %sw.bb7, %entry
  %10 = load ptr, ptr %Ptr.addr, align 8
  %arrayidx12 = getelementptr inbounds i8, ptr %10, i64 0
  %11 = load i8, ptr %arrayidx12, align 1
  %OutBufCur13 = getelementptr inbounds %"class.llvh::raw_ostream", ptr %this1, i32 0, i32 3
  %12 = load ptr, ptr %OutBufCur13, align 8
  %arrayidx14 = getelementptr inbounds i8, ptr %12, i64 0
  store i8 %11, ptr %arrayidx14, align 1
  br label %sw.bb15

sw.bb15:                                          ; preds = %sw.bb11, %entry
  br label %sw.epilog

sw.default:                                       ; preds = %entry
  %OutBufCur16 = getelementptr inbounds %"class.llvh::raw_ostream", ptr %this1, i32 0, i32 3
  %13 = load ptr, ptr %OutBufCur16, align 8
  %14 = load ptr, ptr %Ptr.addr, align 8
  %15 = load i64, ptr %Size.addr, align 8
  call void @llvm.memcpy.p0.p0.i64(ptr align 1 %13, ptr align 1 %14, i64 %15, i1 false)
  br label %sw.epilog

sw.epilog:                                        ; preds = %sw.default, %sw.bb15
  %16 = load i64, ptr %Size.addr, align 8
  %OutBufCur17 = getelementptr inbounds %"class.llvh::raw_ostream", ptr %this1, i32 0, i32 3
  %17 = load ptr, ptr %OutBufCur17, align 8
  %add.ptr = getelementptr inbounds i8, ptr %17, i64 %16
  store ptr %add.ptr, ptr %OutBufCur17, align 8
  ret void
}

; Function Attrs: mustprogress nounwind uwtable
define hidden noundef nonnull align 8 dereferenceable(36) ptr @_ZN4llvh11raw_ostream5writeEPKcm(ptr noundef nonnull align 8 dereferenceable(36) %this, ptr noundef %Ptr, i64 noundef %Size) #0 align 2 {
entry:
  %retval = alloca ptr, align 8
  %this.addr = alloca ptr, align 8
  %Ptr.addr = alloca ptr, align 8
  %Size.addr = alloca i64, align 8
  %NumBytes = alloca i64, align 8
  %BytesToWrite = alloca i64, align 8
  %BytesRemaining = alloca i64, align 8
  store ptr %this, ptr %this.addr, align 8
  store ptr %Ptr, ptr %Ptr.addr, align 8
  store i64 %Size, ptr %Size.addr, align 8
  %this1 = load ptr, ptr %this.addr, align 8
  %OutBufEnd = getelementptr inbounds %"class.llvh::raw_ostream", ptr %this1, i32 0, i32 2
  %0 = load ptr, ptr %OutBufEnd, align 8
  %OutBufCur = getelementptr inbounds %"class.llvh::raw_ostream", ptr %this1, i32 0, i32 3
  %1 = load ptr, ptr %OutBufCur, align 8
  %sub.ptr.lhs.cast = ptrtoint ptr %0 to i64
  %sub.ptr.rhs.cast = ptrtoint ptr %1 to i64
  %sub.ptr.sub = sub i64 %sub.ptr.lhs.cast, %sub.ptr.rhs.cast
  %2 = load i64, ptr %Size.addr, align 8
  %cmp = icmp ult i64 %sub.ptr.sub, %2
  br i1 %cmp, label %if.then, label %if.end32

if.then:                                          ; preds = %entry
  %OutBufStart = getelementptr inbounds %"class.llvh::raw_ostream", ptr %this1, i32 0, i32 1
  %3 = load ptr, ptr %OutBufStart, align 8
  %tobool = icmp ne ptr %3, null
  %lnot = xor i1 %tobool, true
  br i1 %lnot, label %if.then2, label %if.end5

if.then2:                                         ; preds = %if.then
  %BufferMode = getelementptr inbounds %"class.llvh::raw_ostream", ptr %this1, i32 0, i32 4
  %4 = load i32, ptr %BufferMode, align 8
  %cmp3 = icmp eq i32 %4, 0
  br i1 %cmp3, label %if.then4, label %if.end

if.then4:                                         ; preds = %if.then2
  %5 = load ptr, ptr %Ptr.addr, align 8
  %6 = load i64, ptr %Size.addr, align 8
  %vtable = load ptr, ptr %this1, align 8
  %vfn = getelementptr inbounds ptr, ptr %vtable, i64 7
  %7 = load ptr, ptr %vfn, align 8
  call void %7(ptr noundef nonnull align 8 dereferenceable(36) %this1, ptr noundef %5, i64 noundef %6)
  store ptr %this1, ptr %retval, align 8
  br label %return

if.end:                                           ; preds = %if.then2
  call void @_ZN4llvh11raw_ostream11SetBufferedEv(ptr noundef nonnull align 8 dereferenceable(36) %this1)
  %8 = load ptr, ptr %Ptr.addr, align 8
  %9 = load i64, ptr %Size.addr, align 8
  %call = call noundef nonnull align 8 dereferenceable(36) ptr @_ZN4llvh11raw_ostream5writeEPKcm(ptr noundef nonnull align 8 dereferenceable(36) %this1, ptr noundef %8, i64 noundef %9)
  store ptr %call, ptr %retval, align 8
  br label %return

if.end5:                                          ; preds = %if.then
  %OutBufEnd6 = getelementptr inbounds %"class.llvh::raw_ostream", ptr %this1, i32 0, i32 2
  %10 = load ptr, ptr %OutBufEnd6, align 8
  %OutBufCur7 = getelementptr inbounds %"class.llvh::raw_ostream", ptr %this1, i32 0, i32 3
  %11 = load ptr, ptr %OutBufCur7, align 8
  %sub.ptr.lhs.cast8 = ptrtoint ptr %10 to i64
  %sub.ptr.rhs.cast9 = ptrtoint ptr %11 to i64
  %sub.ptr.sub10 = sub i64 %sub.ptr.lhs.cast8, %sub.ptr.rhs.cast9
  store i64 %sub.ptr.sub10, ptr %NumBytes, align 8
  %OutBufCur11 = getelementptr inbounds %"class.llvh::raw_ostream", ptr %this1, i32 0, i32 3
  %12 = load ptr, ptr %OutBufCur11, align 8
  %OutBufStart12 = getelementptr inbounds %"class.llvh::raw_ostream", ptr %this1, i32 0, i32 1
  %13 = load ptr, ptr %OutBufStart12, align 8
  %cmp13 = icmp eq ptr %12, %13
  br i1 %cmp13, label %if.then14, label %if.end28

if.then14:                                        ; preds = %if.end5
  %14 = load i64, ptr %Size.addr, align 8
  %15 = load i64, ptr %Size.addr, align 8
  %16 = load i64, ptr %NumBytes, align 8
  %rem = urem i64 %15, %16
  %sub = sub i64 %14, %rem
  store i64 %sub, ptr %BytesToWrite, align 8
  %17 = load ptr, ptr %Ptr.addr, align 8
  %18 = load i64, ptr %BytesToWrite, align 8
  %vtable15 = load ptr, ptr %this1, align 8
  %vfn16 = getelementptr inbounds ptr, ptr %vtable15, i64 7
  %19 = load ptr, ptr %vfn16, align 8
  call void %19(ptr noundef nonnull align 8 dereferenceable(36) %this1, ptr noundef %17, i64 noundef %18)
  %20 = load i64, ptr %Size.addr, align 8
  %21 = load i64, ptr %BytesToWrite, align 8
  %sub17 = sub i64 %20, %21
  store i64 %sub17, ptr %BytesRemaining, align 8
  %22 = load i64, ptr %BytesRemaining, align 8
  %OutBufEnd18 = getelementptr inbounds %"class.llvh::raw_ostream", ptr %this1, i32 0, i32 2
  %23 = load ptr, ptr %OutBufEnd18, align 8
  %OutBufCur19 = getelementptr inbounds %"class.llvh::raw_ostream", ptr %this1, i32 0, i32 3
  %24 = load ptr, ptr %OutBufCur19, align 8
  %sub.ptr.lhs.cast20 = ptrtoint ptr %23 to i64
  %sub.ptr.rhs.cast21 = ptrtoint ptr %24 to i64
  %sub.ptr.sub22 = sub i64 %sub.ptr.lhs.cast20, %sub.ptr.rhs.cast21
  %cmp23 = icmp ugt i64 %22, %sub.ptr.sub22
  br i1 %cmp23, label %if.then24, label %if.end26

if.then24:                                        ; preds = %if.then14
  %25 = load ptr, ptr %Ptr.addr, align 8
  %26 = load i64, ptr %BytesToWrite, align 8
  %add.ptr = getelementptr inbounds i8, ptr %25, i64 %26
  %27 = load i64, ptr %BytesRemaining, align 8
  %call25 = call noundef nonnull align 8 dereferenceable(36) ptr @_ZN4llvh11raw_ostream5writeEPKcm(ptr noundef nonnull align 8 dereferenceable(36) %this1, ptr noundef %add.ptr, i64 noundef %27)
  store ptr %call25, ptr %retval, align 8
  br label %return

if.end26:                                         ; preds = %if.then14
  %28 = load ptr, ptr %Ptr.addr, align 8
  %29 = load i64, ptr %BytesToWrite, align 8
  %add.ptr27 = getelementptr inbounds i8, ptr %28, i64 %29
  %30 = load i64, ptr %BytesRemaining, align 8
  call void @_ZN4llvh11raw_ostream14copy_to_bufferEPKcm(ptr noundef nonnull align 8 dereferenceable(36) %this1, ptr noundef %add.ptr27, i64 noundef %30)
  store ptr %this1, ptr %retval, align 8
  br label %return

if.end28:                                         ; preds = %if.end5
  %31 = load ptr, ptr %Ptr.addr, align 8
  %32 = load i64, ptr %NumBytes, align 8
  call void @_ZN4llvh11raw_ostream14copy_to_bufferEPKcm(ptr noundef nonnull align 8 dereferenceable(36) %this1, ptr noundef %31, i64 noundef %32)
  call void @_ZN4llvh11raw_ostream14flush_nonemptyEv(ptr noundef nonnull align 8 dereferenceable(36) %this1)
  %33 = load ptr, ptr %Ptr.addr, align 8
  %34 = load i64, ptr %NumBytes, align 8
  %add.ptr29 = getelementptr inbounds i8, ptr %33, i64 %34
  %35 = load i64, ptr %Size.addr, align 8
  %36 = load i64, ptr %NumBytes, align 8
  %sub30 = sub i64 %35, %36
  %call31 = call noundef nonnull align 8 dereferenceable(36) ptr @_ZN4llvh11raw_ostream5writeEPKcm(ptr noundef nonnull align 8 dereferenceable(36) %this1, ptr noundef %add.ptr29, i64 noundef %sub30)
  store ptr %call31, ptr %retval, align 8
  br label %return

if.end32:                                         ; preds = %entry
  %37 = load ptr, ptr %Ptr.addr, align 8
  %38 = load i64, ptr %Size.addr, align 8
  call void @_ZN4llvh11raw_ostream14copy_to_bufferEPKcm(ptr noundef nonnull align 8 dereferenceable(36) %this1, ptr noundef %37, i64 noundef %38)
  store ptr %this1, ptr %retval, align 8
  br label %return

return:                                           ; preds = %if.end32, %if.end28, %if.end26, %if.then24, %if.end, %if.then4
  %39 = load ptr, ptr %retval, align 8
  ret ptr %39
}