; Function Attrs: mustprogress nounwind uwtable
define hidden noundef nonnull align 8 dereferenceable(36) ptr @_ZN4llvh11raw_ostream5writeEPKcm(ptr noundef nonnull returned align 8 dereferenceable(36) %this, ptr noundef %Ptr, i64 noundef %Size) local_unnamed_addr #0 align 2 {
entry:
  %OutBufEnd = getelementptr inbounds i8, ptr %this, i64 16
  %OutBufCur = getelementptr inbounds i8, ptr %this, i64 24
  %0 = load ptr, ptr %OutBufEnd, align 8
  %1 = load ptr, ptr %OutBufCur, align 8
  %sub.ptr.lhs.cast7989 = ptrtoint ptr %0 to i64
  %sub.ptr.rhs.cast8090 = ptrtoint ptr %1 to i64
  %sub.ptr.sub8191 = sub i64 %sub.ptr.lhs.cast7989, %sub.ptr.rhs.cast8090
  %cmp8292 = icmp ult i64 %sub.ptr.sub8191, %Size
  br i1 %cmp8292, label %if.then.lr.ph.lr.ph, label %if.end32

if.then.lr.ph.lr.ph:                              ; preds = %entry
  %OutBufStart = getelementptr inbounds i8, ptr %this, i64 8
  %BufferMode = getelementptr inbounds i8, ptr %this, i64 32
  br label %if.then.lr.ph

if.then.lr.ph:                                    ; preds = %if.then.lr.ph.lr.ph, %tailrecurse.outer.backedge
  %sub.ptr.sub8195 = phi i64 [ %sub.ptr.sub8191, %if.then.lr.ph.lr.ph ], [ %sub.ptr.sub81.pre-phi, %tailrecurse.outer.backedge ]
  %2 = phi ptr [ %1, %if.then.lr.ph.lr.ph ], [ %12, %tailrecurse.outer.backedge ]
  %Size.tr.ph94 = phi i64 [ %Size, %if.then.lr.ph.lr.ph ], [ %Size.tr.ph.be, %tailrecurse.outer.backedge ]
  %Ptr.tr.ph93 = phi ptr [ %Ptr, %if.then.lr.ph.lr.ph ], [ %Ptr.tr.ph.be, %tailrecurse.outer.backedge ]
  %3 = load ptr, ptr %OutBufStart, align 8
  %tobool.not166 = icmp eq ptr %3, null
  br i1 %tobool.not166, label %if.then2, label %if.end5

if.then:                                          ; preds = %if.end
  %4 = load ptr, ptr %OutBufStart, align 8
  %tobool.not = icmp eq ptr %4, null
  br i1 %tobool.not, label %if.then2, label %if.end5

if.then2:                                         ; preds = %if.then.lr.ph, %if.then
  %5 = load i32, ptr %BufferMode, align 8
  %cmp3 = icmp eq i32 %5, 0
  br i1 %cmp3, label %if.then4, label %if.end

if.then4:                                         ; preds = %if.then2
  %vtable = load ptr, ptr %this, align 8
  %vfn = getelementptr inbounds i8, ptr %vtable, i64 56
  %6 = load ptr, ptr %vfn, align 8
  tail call void %6(ptr noundef nonnull align 8 dereferenceable(36) %this, ptr noundef %Ptr.tr.ph93, i64 noundef %Size.tr.ph94) #26
  br label %return

if.end:                                           ; preds = %if.then2
  tail call void @_ZN4llvh11raw_ostream11SetBufferedEv(ptr noundef nonnull align 8 dereferenceable(36) %this)
  %7 = load ptr, ptr %OutBufEnd, align 8
  %8 = load ptr, ptr %OutBufCur, align 8
  %sub.ptr.lhs.cast = ptrtoint ptr %7 to i64
  %sub.ptr.rhs.cast = ptrtoint ptr %8 to i64
  %sub.ptr.sub = sub i64 %sub.ptr.lhs.cast, %sub.ptr.rhs.cast
  %cmp = icmp ult i64 %sub.ptr.sub, %Size.tr.ph94
  br i1 %cmp, label %if.then, label %if.end32

if.end5:                                          ; preds = %if.then, %if.then.lr.ph
  %sub.ptr.sub83.lcssa = phi i64 [ %sub.ptr.sub8195, %if.then.lr.ph ], [ %sub.ptr.sub, %if.then ]
  %.lcssa152 = phi ptr [ %2, %if.then.lr.ph ], [ %8, %if.then ]
  %.lcssa149 = phi ptr [ %3, %if.then.lr.ph ], [ %4, %if.then ]
  %cmp13 = icmp eq ptr %.lcssa152, %.lcssa149
  br i1 %cmp13, label %if.then14, label %if.end28

if.then14:                                        ; preds = %if.end5
  %rem = urem i64 %Size.tr.ph94, %sub.ptr.sub83.lcssa
  %sub = sub nuw i64 %Size.tr.ph94, %rem
  %vtable15 = load ptr, ptr %this, align 8
  %vfn16 = getelementptr inbounds i8, ptr %vtable15, i64 56
  %9 = load ptr, ptr %vfn16, align 8
  tail call void %9(ptr noundef nonnull align 8 dereferenceable(36) %this, ptr noundef %Ptr.tr.ph93, i64 noundef %sub) #26
  %10 = load ptr, ptr %OutBufEnd, align 8
  %11 = load ptr, ptr %OutBufCur, align 8
  %sub.ptr.lhs.cast20 = ptrtoint ptr %10 to i64
  %sub.ptr.rhs.cast21 = ptrtoint ptr %11 to i64
  %sub.ptr.sub22 = sub i64 %sub.ptr.lhs.cast20, %sub.ptr.rhs.cast21
  %cmp23 = icmp ugt i64 %rem, %sub.ptr.sub22
  br i1 %cmp23, label %tailrecurse.outer.backedge, label %if.end26

tailrecurse.outer.backedge:                       ; preds = %if.then14, %_ZN4llvh11raw_ostream14copy_to_bufferEPKcm.exit41
  %sub.ptr.sub81.pre-phi = phi i64 [ %.pre129, %_ZN4llvh11raw_ostream14copy_to_bufferEPKcm.exit41 ], [ %sub.ptr.sub22, %if.then14 ]
  %12 = phi ptr [ %.pre123, %_ZN4llvh11raw_ostream14copy_to_bufferEPKcm.exit41 ], [ %11, %if.then14 ]
  %sub.ptr.sub83.pn = phi i64 [ %sub.ptr.sub83.lcssa, %_ZN4llvh11raw_ostream14copy_to_bufferEPKcm.exit41 ], [ %sub, %if.then14 ]
  %Size.tr.ph.be = phi i64 [ %sub30, %_ZN4llvh11raw_ostream14copy_to_bufferEPKcm.exit41 ], [ %rem, %if.then14 ]
  %Ptr.tr.ph.be = getelementptr inbounds i8, ptr %Ptr.tr.ph93, i64 %sub.ptr.sub83.pn
  %cmp82 = icmp ult i64 %sub.ptr.sub81.pre-phi, %Size.tr.ph.be
  br i1 %cmp82, label %if.then.lr.ph, label %if.end32

if.end26:                                         ; preds = %if.then14
  %add.ptr27 = getelementptr inbounds i8, ptr %Ptr.tr.ph93, i64 %sub
  switch i64 %rem, label %sw.default.i [
    i64 4, label %sw.bb.i
    i64 3, label %sw.bb3.i
    i64 2, label %sw.bb7.i
    i64 1, label %sw.bb11.i
    i64 0, label %_ZN4llvh11raw_ostream14copy_to_bufferEPKcm.exit
  ]

sw.bb.i:                                          ; preds = %if.end26
  %arrayidx.i = getelementptr inbounds i8, ptr %add.ptr27, i64 3
  %13 = load i8, ptr %arrayidx.i, align 1
  %arrayidx2.i = getelementptr inbounds i8, ptr %11, i64 3
  store i8 %13, ptr %arrayidx2.i, align 1
  %.pre119 = load ptr, ptr %OutBufCur, align 8
  br label %sw.bb3.i

sw.bb3.i:                                         ; preds = %sw.bb.i, %if.end26
  %14 = phi ptr [ %.pre119, %sw.bb.i ], [ %11, %if.end26 ]
  %arrayidx4.i = getelementptr inbounds i8, ptr %add.ptr27, i64 2
  %15 = load i8, ptr %arrayidx4.i, align 1
  %arrayidx6.i = getelementptr inbounds i8, ptr %14, i64 2
  store i8 %15, ptr %arrayidx6.i, align 1
  %.pre120 = load ptr, ptr %OutBufCur, align 8
  br label %sw.bb7.i

sw.bb7.i:                                         ; preds = %sw.bb3.i, %if.end26
  %16 = phi ptr [ %.pre120, %sw.bb3.i ], [ %11, %if.end26 ]
  %arrayidx8.i = getelementptr inbounds i8, ptr %add.ptr27, i64 1
  %17 = load i8, ptr %arrayidx8.i, align 1
  %arrayidx10.i = getelementptr inbounds i8, ptr %16, i64 1
  store i8 %17, ptr %arrayidx10.i, align 1
  %.pre121 = load ptr, ptr %OutBufCur, align 8
  br label %sw.bb11.i

sw.bb11.i:                                        ; preds = %sw.bb7.i, %if.end26
  %18 = phi ptr [ %.pre121, %sw.bb7.i ], [ %11, %if.end26 ]
  %19 = load i8, ptr %add.ptr27, align 1
  store i8 %19, ptr %18, align 1
  br label %_ZN4llvh11raw_ostream14copy_to_bufferEPKcm.exit

sw.default.i:                                     ; preds = %if.end26
  tail call void @llvm.memcpy.p0.p0.i64(ptr align 1 %11, ptr align 1 %add.ptr27, i64 %rem, i1 false)
  br label %_ZN4llvh11raw_ostream14copy_to_bufferEPKcm.exit

_ZN4llvh11raw_ostream14copy_to_bufferEPKcm.exit:  ; preds = %if.end26, %sw.bb11.i, %sw.default.i
  %20 = load ptr, ptr %OutBufCur, align 8
  %add.ptr.i = getelementptr inbounds i8, ptr %20, i64 %rem
  store ptr %add.ptr.i, ptr %OutBufCur, align 8
  br label %return

if.end28:                                         ; preds = %if.end5
  switch i64 %sub.ptr.sub83.lcssa, label %sw.default.i39 [
    i64 4, label %sw.bb.i35
    i64 3, label %sw.bb3.i31
    i64 2, label %sw.bb7.i27
    i64 1, label %sw.bb11.i25
    i64 0, label %_ZN4llvh11raw_ostream14copy_to_bufferEPKcm.exit41
  ]

sw.bb.i35:                                        ; preds = %if.end28
  %arrayidx.i36 = getelementptr inbounds i8, ptr %Ptr.tr.ph93, i64 3
  %21 = load i8, ptr %arrayidx.i36, align 1
  %arrayidx2.i38 = getelementptr inbounds i8, ptr %.lcssa152, i64 3
  store i8 %21, ptr %arrayidx2.i38, align 1
  %.pre = load ptr, ptr %OutBufCur, align 8
  br label %sw.bb3.i31

sw.bb3.i31:                                       ; preds = %sw.bb.i35, %if.end28
  %22 = phi ptr [ %.pre, %sw.bb.i35 ], [ %.lcssa152, %if.end28 ]
  %arrayidx4.i32 = getelementptr inbounds i8, ptr %Ptr.tr.ph93, i64 2
  %23 = load i8, ptr %arrayidx4.i32, align 1
  %arrayidx6.i34 = getelementptr inbounds i8, ptr %22, i64 2
  store i8 %23, ptr %arrayidx6.i34, align 1
  %.pre117 = load ptr, ptr %OutBufCur, align 8
  br label %sw.bb7.i27

sw.bb7.i27:                                       ; preds = %sw.bb3.i31, %if.end28
  %24 = phi ptr [ %.pre117, %sw.bb3.i31 ], [ %.lcssa152, %if.end28 ]
  %arrayidx8.i28 = getelementptr inbounds i8, ptr %Ptr.tr.ph93, i64 1
  %25 = load i8, ptr %arrayidx8.i28, align 1
  %arrayidx10.i30 = getelementptr inbounds i8, ptr %24, i64 1
  store i8 %25, ptr %arrayidx10.i30, align 1
  %.pre118 = load ptr, ptr %OutBufCur, align 8
  br label %sw.bb11.i25

sw.bb11.i25:                                      ; preds = %sw.bb7.i27, %if.end28
  %26 = phi ptr [ %.pre118, %sw.bb7.i27 ], [ %.lcssa152, %if.end28 ]
  %27 = load i8, ptr %Ptr.tr.ph93, align 1
  store i8 %27, ptr %26, align 1
  br label %_ZN4llvh11raw_ostream14copy_to_bufferEPKcm.exit41

sw.default.i39:                                   ; preds = %if.end28
  tail call void @llvm.memcpy.p0.p0.i64(ptr align 1 %.lcssa152, ptr align 1 %Ptr.tr.ph93, i64 %sub.ptr.sub83.lcssa, i1 false)
  br label %_ZN4llvh11raw_ostream14copy_to_bufferEPKcm.exit41

_ZN4llvh11raw_ostream14copy_to_bufferEPKcm.exit41: ; preds = %if.end28, %sw.bb11.i25, %sw.default.i39
  %28 = load ptr, ptr %OutBufCur, align 8
  %add.ptr.i24 = getelementptr inbounds i8, ptr %28, i64 %sub.ptr.sub83.lcssa
  %29 = load ptr, ptr %OutBufStart, align 8
  %sub.ptr.lhs.cast.i = ptrtoint ptr %add.ptr.i24 to i64
  %sub.ptr.rhs.cast.i = ptrtoint ptr %29 to i64
  %sub.ptr.sub.i = sub i64 %sub.ptr.lhs.cast.i, %sub.ptr.rhs.cast.i
  store ptr %29, ptr %OutBufCur, align 8
  %vtable.i = load ptr, ptr %this, align 8
  %vfn.i = getelementptr inbounds i8, ptr %vtable.i, i64 56
  %30 = load ptr, ptr %vfn.i, align 8
  tail call void %30(ptr noundef nonnull align 8 dereferenceable(36) %this, ptr noundef %29, i64 noundef %sub.ptr.sub.i) #26
  %sub30 = sub i64 %Size.tr.ph94, %sub.ptr.sub83.lcssa
  %.pre122 = load ptr, ptr %OutBufEnd, align 8
  %.pre123 = load ptr, ptr %OutBufCur, align 8
  %.pre127 = ptrtoint ptr %.pre122 to i64
  %.pre128 = ptrtoint ptr %.pre123 to i64
  %.pre129 = sub i64 %.pre127, %.pre128
  br label %tailrecurse.outer.backedge

if.end32:                                         ; preds = %tailrecurse.outer.backedge, %if.end, %entry
  %Ptr.tr.ph.lcssa77 = phi ptr [ %Ptr, %entry ], [ %Ptr.tr.ph93, %if.end ], [ %Ptr.tr.ph.be, %tailrecurse.outer.backedge ]
  %Size.tr.ph.lcssa75 = phi i64 [ %Size, %entry ], [ %Size.tr.ph94, %if.end ], [ %Size.tr.ph.be, %tailrecurse.outer.backedge ]
  %.lcssa = phi ptr [ %1, %entry ], [ %8, %if.end ], [ %12, %tailrecurse.outer.backedge ]
  switch i64 %Size.tr.ph.lcssa75, label %sw.default.i59 [
    i64 4, label %sw.bb.i55
    i64 3, label %sw.bb3.i51
    i64 2, label %sw.bb7.i47
    i64 1, label %sw.bb11.i45
    i64 0, label %_ZN4llvh11raw_ostream14copy_to_bufferEPKcm.exit61
  ]

sw.bb.i55:                                        ; preds = %if.end32
  %arrayidx.i56 = getelementptr inbounds i8, ptr %Ptr.tr.ph.lcssa77, i64 3
  %31 = load i8, ptr %arrayidx.i56, align 1
  %arrayidx2.i58 = getelementptr inbounds i8, ptr %.lcssa, i64 3
  store i8 %31, ptr %arrayidx2.i58, align 1
  %.pre124 = load ptr, ptr %OutBufCur, align 8
  br label %sw.bb3.i51

sw.bb3.i51:                                       ; preds = %sw.bb.i55, %if.end32
  %32 = phi ptr [ %.pre124, %sw.bb.i55 ], [ %.lcssa, %if.end32 ]
  %arrayidx4.i52 = getelementptr inbounds i8, ptr %Ptr.tr.ph.lcssa77, i64 2
  %33 = load i8, ptr %arrayidx4.i52, align 1
  %arrayidx6.i54 = getelementptr inbounds i8, ptr %32, i64 2
  store i8 %33, ptr %arrayidx6.i54, align 1
  %.pre125 = load ptr, ptr %OutBufCur, align 8
  br label %sw.bb7.i47

sw.bb7.i47:                                       ; preds = %sw.bb3.i51, %if.end32
  %34 = phi ptr [ %.pre125, %sw.bb3.i51 ], [ %.lcssa, %if.end32 ]
  %arrayidx8.i48 = getelementptr inbounds i8, ptr %Ptr.tr.ph.lcssa77, i64 1
  %35 = load i8, ptr %arrayidx8.i48, align 1
  %arrayidx10.i50 = getelementptr inbounds i8, ptr %34, i64 1
  store i8 %35, ptr %arrayidx10.i50, align 1
  %.pre126 = load ptr, ptr %OutBufCur, align 8
  br label %sw.bb11.i45

sw.bb11.i45:                                      ; preds = %sw.bb7.i47, %if.end32
  %36 = phi ptr [ %.pre126, %sw.bb7.i47 ], [ %.lcssa, %if.end32 ]
  %37 = load i8, ptr %Ptr.tr.ph.lcssa77, align 1
  store i8 %37, ptr %36, align 1
  br label %_ZN4llvh11raw_ostream14copy_to_bufferEPKcm.exit61

sw.default.i59:                                   ; preds = %if.end32
  tail call void @llvm.memcpy.p0.p0.i64(ptr align 1 %.lcssa, ptr align 1 %Ptr.tr.ph.lcssa77, i64 %Size.tr.ph.lcssa75, i1 false)
  br label %_ZN4llvh11raw_ostream14copy_to_bufferEPKcm.exit61

_ZN4llvh11raw_ostream14copy_to_bufferEPKcm.exit61: ; preds = %if.end32, %sw.bb11.i45, %sw.default.i59
  %38 = load ptr, ptr %OutBufCur, align 8
  %add.ptr.i44 = getelementptr inbounds i8, ptr %38, i64 %Size.tr.ph.lcssa75
  store ptr %add.ptr.i44, ptr %OutBufCur, align 8
  br label %return

return:                                           ; preds = %_ZN4llvh11raw_ostream14copy_to_bufferEPKcm.exit61, %_ZN4llvh11raw_ostream14copy_to_bufferEPKcm.exit, %if.then4
  ret ptr %this
}